target datalayout = "e-m:e-p270:32:32-p271:32:32-p272:64:64-i64:64-i128:128-f80:128-n8:16:32:64-S128"
target triple = "x86_64-pc-linux-gnu"

%struct.dtlink_s_ = type { ptr, %union.anon }
%union.anon = type { ptr }
%struct.segment = type { i8, double, %struct.paird, i32, i32, i64, i32, ptr, ptr }
%struct.paird = type { double, double }
%struct.channel = type { %struct.dtlink_s_, %struct.paird, %struct.seg_list_t, ptr, ptr }
%struct.seg_list_t = type { ptr, i64, i64, i64 }
%struct.chanItem = type { %struct.dtlink_s_, double, ptr }
%struct.rawgraph = type { i64, ptr }
%struct.vertex = type { i32, i32, %struct.adj_list_t }
%struct.adj_list_t = type { ptr, i64, i64, i64 }

@odb_flags = global i32 0, align 4
@stderr = external global ptr, align 8
@.str.8 = private unnamed_addr constant [22 x i8] c"channel %.0f (%f,%f)\0A\00", align 1
@.str.9 = private unnamed_addr constant [5 x i8] c" ->\0A\00", align 1
@.str.10 = private unnamed_addr constant [6 x i8] c"     \00", align 1
@.str.11 = private unnamed_addr constant [2 x i8] c"\0A\00", align 1

; Function Attrs: inlinehint nounwind uwtable
define internal i64 @adj_list_get(ptr noundef %0, i64 noundef %1) #2 {
  %3 = alloca ptr, align 8
  %4 = alloca i64, align 8
  store ptr %0, ptr %3, align 8, !tbaa !10
  store i64 %1, ptr %4, align 8, !tbaa !27
  %5 = load ptr, ptr %3, align 8, !tbaa !10
  %6 = getelementptr inbounds nuw %struct.adj_list_t, ptr %5, i32 0, i32 0
  %7 = load ptr, ptr %6, align 8, !tbaa !209
  %8 = load ptr, ptr %3, align 8, !tbaa !10
  %9 = getelementptr inbounds nuw %struct.adj_list_t, ptr %8, i32 0, i32 1
  %10 = load i64, ptr %9, align 8, !tbaa !210
  %11 = load i64, ptr %4, align 8, !tbaa !27
  %12 = add i64 %10, %11
  %13 = load ptr, ptr %3, align 8, !tbaa !10
  %14 = getelementptr inbounds nuw %struct.adj_list_t, ptr %13, i32 0, i32 3
  %15 = load i64, ptr %14, align 8, !tbaa !211
  %16 = urem i64 %12, %15
  %17 = getelementptr inbounds nuw i64, ptr %7, i64 %16
  %18 = load i64, ptr %17, align 8, !tbaa !27
  ret i64 %18
}

; Function Attrs: inlinehint nounwind uwtable
define internal i64 @adj_list_size(ptr noundef %0) #2 {
  %2 = alloca ptr, align 8
  store ptr %0, ptr %2, align 8, !tbaa !10
  %3 = load ptr, ptr %2, align 8, !tbaa !10
  %4 = getelementptr inbounds nuw %struct.adj_list_t, ptr %3, i32 0, i32 2
  %5 = load i64, ptr %4, align 8, !tbaa !208
  ret i64 %5
}

; Function Attrs: inlinehint nounwind uwtable
define internal zeroext i1 @adj_list_is_empty(ptr noundef %0) #2 {
  %2 = alloca ptr, align 8
  store ptr %0, ptr %2, align 8, !tbaa !10
  %3 = load ptr, ptr %2, align 8, !tbaa !10
  %4 = call i64 @adj_list_size(ptr noundef %3)
  %5 = icmp eq i64 %4, 0
  ret i1 %5
}

; Function Attrs: inlinehint nounwind uwtable
define internal ptr @seg_list_get(ptr noundef %0, i64 noundef %1) #2 {
  %3 = alloca ptr, align 8
  %4 = alloca i64, align 8
  store ptr %0, ptr %3, align 8, !tbaa !10
  store i64 %1, ptr %4, align 8, !tbaa !27
  %5 = load ptr, ptr %3, align 8, !tbaa !10
  %6 = getelementptr inbounds nuw %struct.seg_list_t, ptr %5, i32 0, i32 0
  %7 = load ptr, ptr %6, align 8, !tbaa !168
  %8 = load ptr, ptr %3, align 8, !tbaa !10
  %9 = getelementptr inbounds nuw %struct.seg_list_t, ptr %8, i32 0, i32 1
  %10 = load i64, ptr %9, align 8, !tbaa !171
  %11 = load i64, ptr %4, align 8, !tbaa !27
  %12 = add i64 %10, %11
  %13 = load ptr, ptr %3, align 8, !tbaa !10
  %14 = getelementptr inbounds nuw %struct.seg_list_t, ptr %13, i32 0, i32 3
  %15 = load i64, ptr %14, align 8, !tbaa !172
  %16 = urem i64 %12, %15
  %17 = getelementptr inbounds nuw ptr, ptr %7, i64 %16
  %18 = load ptr, ptr %17, align 8, !tbaa !76
  ret ptr %18
}

; Function Attrs: inlinehint nounwind uwtable
define internal i64 @seg_list_size(ptr noundef %0) #2 {
  %2 = alloca ptr, align 8
  store ptr %0, ptr %2, align 8, !tbaa !10
  %3 = load ptr, ptr %2, align 8, !tbaa !10
  %4 = getelementptr inbounds nuw %struct.seg_list_t, ptr %3, i32 0, i32 2
  %5 = load i64, ptr %4, align 8, !tbaa !169
  ret i64 %5
}

; Function Attrs: nounwind uwtable
define internal void @dumpChanG(ptr noundef %0, double noundef %1) #0 {
  %3 = alloca ptr, align 8
  %4 = alloca double, align 8
  %5 = alloca i64, align 8
  %6 = alloca i32, align 4
  %7 = alloca %struct.adj_list_t, align 8
  %8 = alloca i64, align 8
  store ptr %0, ptr %3, align 8, !tbaa !10
  store double %1, ptr %4, align 8, !tbaa !85
  %9 = load ptr, ptr %3, align 8, !tbaa !10
  %10 = getelementptr inbounds nuw %struct.channel, ptr %9, i32 0, i32 2
  %11 = call i64 @seg_list_size(ptr noundef %10)
  %12 = icmp ult i64 %11, 2
  br i1 %12, label %13, label %14

13:                                               ; preds = %2
  br label %78

14:                                               ; preds = %2
  %15 = load ptr, ptr @stderr, align 8, !tbaa !25
  %16 = load double, ptr %4, align 8, !tbaa !85
  %17 = load ptr, ptr %3, align 8, !tbaa !10
  %18 = getelementptr inbounds nuw %struct.channel, ptr %17, i32 0, i32 1
  %19 = getelementptr inbounds nuw %struct.paird, ptr %18, i32 0, i32 0
  %20 = load double, ptr %19, align 8, !tbaa !127
  %21 = load ptr, ptr %3, align 8, !tbaa !10
  %22 = getelementptr inbounds nuw %struct.channel, ptr %21, i32 0, i32 1
  %23 = getelementptr inbounds nuw %struct.paird, ptr %22, i32 0, i32 1
  %24 = load double, ptr %23, align 8, !tbaa !130
  %25 = call i32 (ptr, ptr, ...) @fprintf(ptr noundef %15, ptr noundef @.str.8, double noundef %16, double noundef %20, double noundef %24) #12
  call void @llvm.lifetime.start.p0(i64 8, ptr %5) #12
  store i64 0, ptr %5, align 8, !tbaa !27
  br label %26

26:                                               ; preds = %75, %14
  %27 = load i64, ptr %5, align 8, !tbaa !27
  %28 = load ptr, ptr %3, align 8, !tbaa !10
  %29 = getelementptr inbounds nuw %struct.channel, ptr %28, i32 0, i32 2
  %30 = call i64 @seg_list_size(ptr noundef %29)
  %31 = icmp ult i64 %27, %30
  br i1 %31, label %33, label %32

32:                                               ; preds = %26
  store i32 2, ptr %6, align 4
  call void @llvm.lifetime.end.p0(i64 8, ptr %5) #12
  br label %78

33:                                               ; preds = %26
  call void @llvm.lifetime.start.p0(i64 32, ptr %7) #12
  %34 = load ptr, ptr %3, align 8, !tbaa !10
  %35 = getelementptr inbounds nuw %struct.channel, ptr %34, i32 0, i32 3
  %36 = load ptr, ptr %35, align 8, !tbaa !165
  %37 = getelementptr inbounds nuw %struct.rawgraph, ptr %36, i32 0, i32 1
  %38 = load ptr, ptr %37, align 8, !tbaa !183
  %39 = load i64, ptr %5, align 8, !tbaa !27
  %40 = getelementptr inbounds nuw %struct.vertex, ptr %38, i64 %39
  %41 = getelementptr inbounds nuw %struct.vertex, ptr %40, i32 0, i32 2
  call void @llvm.memcpy.p0.p0.i64(ptr align 8 %7, ptr align 8 %41, i64 32, i1 false), !tbaa.struct !204
  %42 = call zeroext i1 @adj_list_is_empty(ptr noundef %7)
  br i1 %42, label %43, label %44

43:                                               ; preds = %33
  store i32 4, ptr %6, align 4
  br label %72

44:                                               ; preds = %33
  %45 = load ptr, ptr @stderr, align 8, !tbaa !25
  %46 = load ptr, ptr %3, align 8, !tbaa !10
  %47 = getelementptr inbounds nuw %struct.channel, ptr %46, i32 0, i32 2
  %48 = load i64, ptr %5, align 8, !tbaa !27
  %49 = call ptr @seg_list_get(ptr noundef %47, i64 noundef %48)
  call void @putSeg(ptr noundef %45, ptr noundef %49)
  %50 = load ptr, ptr @stderr, align 8, !tbaa !25
  %51 = call i32 @fputs(ptr noundef @.str.9, ptr noundef %50)
  call void @llvm.lifetime.start.p0(i64 8, ptr %8) #12
  store i64 0, ptr %8, align 8, !tbaa !27
  br label %52

52:                                               ; preds = %68, %44
  %53 = load i64, ptr %8, align 8, !tbaa !27
  %54 = call i64 @adj_list_size(ptr noundef %7)
  %55 = icmp ult i64 %53, %54
  br i1 %55, label %57, label %56

56:                                               ; preds = %52
  store i32 5, ptr %6, align 4
  call void @llvm.lifetime.end.p0(i64 8, ptr %8) #12
  br label %71

57:                                               ; preds = %52
  %58 = load ptr, ptr @stderr, align 8, !tbaa !25
  %59 = call i32 @fputs(ptr noundef @.str.10, ptr noundef %58)
  %60 = load ptr, ptr @stderr, align 8, !tbaa !25
  %61 = load ptr, ptr %3, align 8, !tbaa !10
  %62 = getelementptr inbounds nuw %struct.channel, ptr %61, i32 0, i32 2
  %63 = load i64, ptr %8, align 8, !tbaa !27
  %64 = call i64 @adj_list_get(ptr noundef %7, i64 noundef %63)
  %65 = call ptr @seg_list_get(ptr noundef %62, i64 noundef %64)
  call void @putSeg(ptr noundef %60, ptr noundef %65)
  %66 = load ptr, ptr @stderr, align 8, !tbaa !25
  %67 = call i32 @fputs(ptr noundef @.str.11, ptr noundef %66)
  br label %68

68:                                               ; preds = %57
  %69 = load i64, ptr %8, align 8, !tbaa !27
  %70 = add i64 %69, 1
  store i64 %70, ptr %8, align 8, !tbaa !27
  br label %52, !llvm.loop !206

71:                                               ; preds = %56
  store i32 0, ptr %6, align 4
  br label %72

72:                                               ; preds = %71, %43
  call void @llvm.lifetime.end.p0(i64 32, ptr %7) #12
  %73 = load i32, ptr %6, align 4
  switch i32 %73, label %79 [
    i32 0, label %74
    i32 4, label %75
  ]

74:                                               ; preds = %72
  br label %75

75:                                               ; preds = %74, %72
  %76 = load i64, ptr %5, align 8, !tbaa !27
  %77 = add i64 %76, 1
  store i64 %77, ptr %5, align 8, !tbaa !27
  br label %26, !llvm.loop !207

78:                                               ; preds = %13, %32
  ret void

79:                                               ; preds = %72
  unreachable
}

; Function Attrs: inlinehint nounwind uwtable
define internal zeroext i1 @seg_list_is_empty(ptr noundef %0) #2 {
  %2 = alloca ptr, align 8
  store ptr %0, ptr %2, align 8, !tbaa !10
  %3 = load ptr, ptr %2, align 8, !tbaa !10
  %4 = call i64 @seg_list_size(ptr noundef %3)
  %5 = icmp eq i64 %4, 0
  ret i1 %5
}

; Function Attrs: nounwind uwtable
define internal void @assignTrackNo(ptr noundef %0) #0 {
  %2 = alloca ptr, align 8
  %3 = alloca ptr, align 8
  %4 = alloca ptr, align 8
  %5 = alloca ptr, align 8
  %6 = alloca ptr, align 8
  %7 = alloca i64, align 8
  store ptr %0, ptr %2, align 8, !tbaa !11
  call void @llvm.lifetime.start.p0(i64 8, ptr %3) #12
  call void @llvm.lifetime.start.p0(i64 8, ptr %4) #12
  call void @llvm.lifetime.start.p0(i64 8, ptr %5) #12
  call void @llvm.lifetime.start.p0(i64 8, ptr %6) #12
  %8 = load ptr, ptr %2, align 8, !tbaa !11
  %9 = call ptr @dtflatten(ptr noundef %8)
  store ptr %9, ptr %4, align 8, !tbaa !175
  br label %10

10:                                               ; preds = %73, %1
  %11 = load ptr, ptr %4, align 8, !tbaa !175
  %12 = icmp ne ptr %11, null
  br i1 %12, label %13, label %77

13:                                               ; preds = %10
  %14 = load ptr, ptr %4, align 8, !tbaa !175
  %15 = getelementptr inbounds nuw %struct.chanItem, ptr %14, i32 0, i32 2
  %16 = load ptr, ptr %15, align 8, !tbaa !163
  store ptr %16, ptr %3, align 8, !tbaa !11
  %17 = load ptr, ptr %3, align 8, !tbaa !11
  %18 = call ptr @dtflatten(ptr noundef %17)
  store ptr %18, ptr %5, align 8, !tbaa !175
  br label %19

19:                                               ; preds = %68, %13
  %20 = load ptr, ptr %5, align 8, !tbaa !175
  %21 = icmp ne ptr %20, null
  br i1 %21, label %22, label %72

22:                                               ; preds = %19
  %23 = load ptr, ptr %5, align 8, !tbaa !175
  store ptr %23, ptr %6, align 8, !tbaa !10
  %24 = load ptr, ptr %6, align 8, !tbaa !10
  %25 = getelementptr inbounds nuw %struct.channel, ptr %24, i32 0, i32 2
  %26 = call zeroext i1 @seg_list_is_empty(ptr noundef %25)
  br i1 %26, label %67, label %27

27:                                               ; preds = %22
  %28 = load i32, ptr @odb_flags, align 4, !tbaa !17
  %29 = and i32 %28, 8
  %30 = icmp ne i32 %29, 0
  br i1 %30, label %31, label %36

31:                                               ; preds = %27
  %32 = load ptr, ptr %6, align 8, !tbaa !10
  %33 = load ptr, ptr %4, align 8, !tbaa !175
  %34 = getelementptr inbounds nuw %struct.chanItem, ptr %33, i32 0, i32 1
  %35 = load double, ptr %34, align 8, !tbaa !161
  call void @dumpChanG(ptr noundef %32, double noundef %35)
  br label %36

36:                                               ; preds = %31, %27
  %37 = load ptr, ptr %6, align 8, !tbaa !10
  %38 = getelementptr inbounds nuw %struct.channel, ptr %37, i32 0, i32 3
  %39 = load ptr, ptr %38, align 8, !tbaa !165
  call void @top_sort(ptr noundef %39)
  call void @llvm.lifetime.start.p0(i64 8, ptr %7) #12
  store i64 0, ptr %7, align 8, !tbaa !27
  br label %40

40:                                               ; preds = %63, %36
  %41 = load i64, ptr %7, align 8, !tbaa !27
  %42 = load ptr, ptr %6, align 8, !tbaa !10
  %43 = getelementptr inbounds nuw %struct.channel, ptr %42, i32 0, i32 2
  %44 = call i64 @seg_list_size(ptr noundef %43)
  %45 = icmp ult i64 %41, %44
  br i1 %45, label %47, label %46

46:                                               ; preds = %40
  call void @llvm.lifetime.end.p0(i64 8, ptr %7) #12
  br label %66

47:                                               ; preds = %40
  %48 = load ptr, ptr %6, align 8, !tbaa !10
  %49 = getelementptr inbounds nuw %struct.channel, ptr %48, i32 0, i32 3
  %50 = load ptr, ptr %49, align 8, !tbaa !165
  %51 = getelementptr inbounds nuw %struct.rawgraph, ptr %50, i32 0, i32 1
  %52 = load ptr, ptr %51, align 8, !tbaa !183
  %53 = load i64, ptr %7, align 8, !tbaa !27
  %54 = getelementptr inbounds nuw %struct.vertex, ptr %52, i64 %53
  %55 = getelementptr inbounds nuw %struct.vertex, ptr %54, i32 0, i32 1
  %56 = load i32, ptr %55, align 4, !tbaa !185
  %57 = add nsw i32 %56, 1
  %58 = load ptr, ptr %6, align 8, !tbaa !10
  %59 = getelementptr inbounds nuw %struct.channel, ptr %58, i32 0, i32 2
  %60 = load i64, ptr %7, align 8, !tbaa !27
  %61 = call ptr @seg_list_get(ptr noundef %59, i64 noundef %60)
  %62 = getelementptr inbounds nuw %struct.segment, ptr %61, i32 0, i32 6
  store i32 %57, ptr %62, align 8, !tbaa !189
  br label %63

63:                                               ; preds = %47
  %64 = load i64, ptr %7, align 8, !tbaa !27
  %65 = add i64 %64, 1
  store i64 %65, ptr %7, align 8, !tbaa !27
  br label %40, !llvm.loop !190

66:                                               ; preds = %46
  br label %67

67:                                               ; preds = %66, %22
  br label %68

68:                                               ; preds = %67
  %69 = load ptr, ptr %5, align 8, !tbaa !175
  %70 = getelementptr inbounds nuw %struct.dtlink_s_, ptr %69, i32 0, i32 0
  %71 = load ptr, ptr %70, align 8, !tbaa !176
  store ptr %71, ptr %5, align 8, !tbaa !175
  br label %19, !llvm.loop !191

72:                                               ; preds = %19
  br label %73

73:                                               ; preds = %72
  %74 = load ptr, ptr %4, align 8, !tbaa !175
  %75 = getelementptr inbounds nuw %struct.dtlink_s_, ptr %74, i32 0, i32 0
  %76 = load ptr, ptr %75, align 8, !tbaa !176
  store ptr %76, ptr %4, align 8, !tbaa !175
  br label %10, !llvm.loop !192

77:                                               ; preds = %10
  call void @llvm.lifetime.end.p0(i64 8, ptr %6) #12
  call void @llvm.lifetime.end.p0(i64 8, ptr %5) #12
  call void @llvm.lifetime.end.p0(i64 8, ptr %4) #12
  call void @llvm.lifetime.end.p0(i64 8, ptr %3) #12
  ret void
}