; Function Attrs: nounwind uwtable
define internal fastcc void @assignTrackNo(ptr noundef %0) unnamed_addr #0 {
  %2 = tail call ptr @dtflatten(ptr noundef %0) #18
  %.not28 = icmp eq ptr %2, null
  br i1 %.not28, label %._crit_edge32, label %.lr.ph31

.lr.ph31:                                         ; preds = %1, %._crit_edge
  %.01829 = phi ptr [ %83, %._crit_edge ], [ %2, %1 ]
  %3 = getelementptr inbounds nuw i8, ptr %.01829, i64 24
  %4 = load ptr, ptr %3, align 8, !tbaa !116
  %5 = tail call ptr @dtflatten(ptr noundef %4) #18
  %.not2024 = icmp eq ptr %5, null
  br i1 %.not2024, label %._crit_edge, label %.lr.ph27

.lr.ph27:                                         ; preds = %.lr.ph31
  %6 = getelementptr inbounds nuw i8, ptr %.01829, i64 16
  br label %7

7:                                                ; preds = %.lr.ph27, %.loopexit
  %.01925 = phi ptr [ %5, %.lr.ph27 ], [ %82, %.loopexit ]
  %8 = getelementptr inbounds nuw i8, ptr %.01925, i64 32
  %9 = getelementptr i8, ptr %.01925, i64 48
  %.val22 = load i64, ptr %9, align 8, !tbaa !118
  %10 = icmp eq i64 %.val22, 0
  br i1 %10, label %.loopexit, label %11

11:                                               ; preds = %7
  %12 = load i32, ptr @odb_flags, align 4, !tbaa !12
  %13 = and i32 %12, 8
  %.not21 = icmp eq i32 %13, 0
  %14 = icmp eq i64 %.val22, 1
  %or.cond = or i1 %.not21, %14
  br i1 %or.cond, label %dumpChanG.exit, label %15

15:                                               ; preds = %11
  %16 = load double, ptr %6, align 8, !tbaa !152
  %17 = load ptr, ptr @stderr, align 8, !tbaa !3
  %18 = getelementptr inbounds nuw i8, ptr %.01925, i64 16
  %19 = load double, ptr %18, align 8, !tbaa !100
  %20 = getelementptr inbounds nuw i8, ptr %.01925, i64 24
  %21 = load double, ptr %20, align 8, !tbaa !102
  %22 = tail call i32 (ptr, ptr, ...) @fprintf(ptr noundef %17, ptr noundef nonnull @.str.8, double noundef %16, double noundef %19, double noundef %21) #20
  %.val20.i = load i64, ptr %9, align 8, !tbaa !118
  %.not.i = icmp eq i64 %.val20.i, 0
  br i1 %.not.i, label %dumpChanG.exit, label %.lr.ph.i

.lr.ph.i:                                         ; preds = %15
  %23 = getelementptr inbounds nuw i8, ptr %.01925, i64 64
  %24 = getelementptr inbounds nuw i8, ptr %.01925, i64 40
  %25 = getelementptr inbounds nuw i8, ptr %.01925, i64 56
  br label %26

26:                                               ; preds = %.loopexit.i, %.lr.ph.i
  %.val22.i = phi i64 [ %.val20.i, %.lr.ph.i ], [ %.val.i, %.loopexit.i ]
  %.01421.i = phi i64 [ 0, %.lr.ph.i ], [ %60, %.loopexit.i ]
  %27 = load ptr, ptr %23, align 8, !tbaa !124
  %28 = getelementptr inbounds nuw i8, ptr %27, i64 8
  %29 = load ptr, ptr %28, align 8, !tbaa !171
  %30 = getelementptr inbounds nuw %struct.vertex, ptr %29, i64 %.01421.i, i32 2
  %.sroa.0.0.copyload.i = load ptr, ptr %30, align 8, !tbaa !173
  %.sroa.4.0..sroa_idx.i = getelementptr inbounds nuw i8, ptr %30, i64 8
  %.sroa.4.0.copyload.i = load i64, ptr %.sroa.4.0..sroa_idx.i, align 8, !tbaa !89
  %.sroa.5.0..sroa_idx.i = getelementptr inbounds nuw i8, ptr %30, i64 16
  %.sroa.5.0.copyload.i = load i64, ptr %.sroa.5.0..sroa_idx.i, align 8, !tbaa !89
  %.sroa.7.0..sroa_idx.i = getelementptr inbounds nuw i8, ptr %30, i64 24
  %.sroa.7.0.copyload.i = load i64, ptr %.sroa.7.0..sroa_idx.i, align 8, !tbaa !89
  %31 = icmp eq i64 %.sroa.5.0.copyload.i, 0
  br i1 %31, label %.loopexit.i, label %32

32:                                               ; preds = %26
  %33 = load ptr, ptr @stderr, align 8, !tbaa !3
  %34 = load ptr, ptr %8, align 8, !tbaa !122
  %35 = load i64, ptr %24, align 8, !tbaa !121
  %36 = add i64 %35, %.01421.i
  %37 = load i64, ptr %25, align 8, !tbaa !120
  %38 = urem i64 %36, %37
  %39 = getelementptr inbounds nuw ptr, ptr %34, i64 %38
  %40 = load ptr, ptr %39, align 8, !tbaa !90
  tail call fastcc void @putSeg(ptr noundef %33, ptr noundef %40)
  %41 = load ptr, ptr @stderr, align 8, !tbaa !3
  %42 = tail call i64 @fwrite(ptr nonnull @.str.9, i64 4, i64 1, ptr %41) #23
  br label %43

43:                                               ; preds = %43, %32
  %.019.i = phi i64 [ 0, %32 ], [ %59, %43 ]
  %44 = load ptr, ptr @stderr, align 8, !tbaa !3
  %45 = tail call i64 @fwrite(ptr nonnull @.str.10, i64 5, i64 1, ptr %44) #23
  %46 = load ptr, ptr @stderr, align 8, !tbaa !3
  %47 = add i64 %.019.i, %.sroa.4.0.copyload.i
  %48 = urem i64 %47, %.sroa.7.0.copyload.i
  %49 = getelementptr inbounds nuw i64, ptr %.sroa.0.0.copyload.i, i64 %48
  %50 = load i64, ptr %49, align 8, !tbaa !89
  %51 = load ptr, ptr %8, align 8, !tbaa !122
  %52 = load i64, ptr %24, align 8, !tbaa !121
  %53 = add i64 %52, %50
  %54 = load i64, ptr %25, align 8, !tbaa !120
  %55 = urem i64 %53, %54
  %56 = getelementptr inbounds nuw ptr, ptr %51, i64 %55
  %57 = load ptr, ptr %56, align 8, !tbaa !90
  tail call fastcc void @putSeg(ptr noundef %46, ptr noundef %57)
  %58 = load ptr, ptr @stderr, align 8, !tbaa !3
  %fputc.i = tail call i32 @fputc(i32 10, ptr %58)
  %59 = add nuw i64 %.019.i, 1
  %exitcond.not.i = icmp eq i64 %59, %.sroa.5.0.copyload.i
  br i1 %exitcond.not.i, label %.loopexit.loopexit.i, label %43, !llvm.loop !175

.loopexit.loopexit.i:                             ; preds = %43
  %.val.pre.i = load i64, ptr %9, align 8, !tbaa !118
  br label %.loopexit.i

.loopexit.i:                                      ; preds = %.loopexit.loopexit.i, %26
  %.val.i = phi i64 [ %.val.pre.i, %.loopexit.loopexit.i ], [ %.val22.i, %26 ]
  %60 = add nuw i64 %.01421.i, 1
  %61 = icmp ult i64 %60, %.val.i
  br i1 %61, label %26, label %dumpChanG.exit, !llvm.loop !176

dumpChanG.exit:                                   ; preds = %.loopexit.i, %15, %11
  %62 = getelementptr inbounds nuw i8, ptr %.01925, i64 64
  %63 = load ptr, ptr %62, align 8, !tbaa !124
  tail call void @top_sort(ptr noundef %63) #18
  %.val = load i64, ptr %9, align 8, !tbaa !118
  %.not33 = icmp eq i64 %.val, 0
  br i1 %.not33, label %.loopexit, label %.lr.ph

.lr.ph:                                           ; preds = %dumpChanG.exit
  %64 = load ptr, ptr %62, align 8, !tbaa !124
  %65 = getelementptr inbounds nuw i8, ptr %64, i64 8
  %66 = load ptr, ptr %65, align 8, !tbaa !171
  %67 = load ptr, ptr %8, align 8, !tbaa !122
  %68 = getelementptr inbounds nuw i8, ptr %.01925, i64 40
  %69 = load i64, ptr %68, align 8, !tbaa !121
  %70 = getelementptr inbounds nuw i8, ptr %.01925, i64 56
  %71 = load i64, ptr %70, align 8, !tbaa !120
  br label %72

72:                                               ; preds = %.lr.ph, %72
  %.023 = phi i64 [ 0, %.lr.ph ], [ %81, %72 ]
  %73 = getelementptr inbounds nuw %struct.vertex, ptr %66, i64 %.023, i32 1
  %74 = load i32, ptr %73, align 4, !tbaa !177
  %75 = add nsw i32 %74, 1
  %76 = add i64 %69, %.023
  %77 = urem i64 %76, %71
  %78 = getelementptr inbounds nuw ptr, ptr %67, i64 %77
  %79 = load ptr, ptr %78, align 8, !tbaa !90
  %80 = getelementptr inbounds nuw i8, ptr %79, i64 48
  store i32 %75, ptr %80, align 8, !tbaa !134
  %81 = add nuw i64 %.023, 1
  %exitcond.not = icmp eq i64 %81, %.val
  br i1 %exitcond.not, label %.loopexit, label %72, !llvm.loop !180

.loopexit:                                        ; preds = %72, %dumpChanG.exit, %7
  %82 = load ptr, ptr %.01925, align 8, !tbaa !125
  %.not20 = icmp eq ptr %82, null
  br i1 %.not20, label %._crit_edge, label %7, !llvm.loop !181

._crit_edge:                                      ; preds = %.loopexit, %.lr.ph31
  %83 = load ptr, ptr %.01829, align 8, !tbaa !125
  %.not = icmp eq ptr %83, null
  br i1 %.not, label %._crit_edge32, label %.lr.ph31, !llvm.loop !182

._crit_edge32:                                    ; preds = %._crit_edge, %1
  ret void
}